target datalayout = "e-m:e-p270:32:32-p271:32:32-p272:64:64-i64:64-i128:128-f80:128-n8:16:32:64-S128"
target triple = "x86_64-pc-linux-gnu"

%struct.TransactionAction = type { i32, %union.anon.18 }
%union.anon.18 = type { %struct.AbortWrapper }
%struct.AbortWrapper = type { ptr }
%struct.TransactionActionList = type { ptr, ptr }
%struct.BlockdevSnapshotInternal = type { ptr, ptr }
%struct.BlockdevSnapshotInternalWrapper = type { ptr }

; Function Attrs: nounwind sspstrong uwtable
define internal void @blockdev_do_action(ptr noundef %0, ptr noundef %1) #0 {
  %3 = alloca ptr, align 8
  %4 = alloca ptr, align 8
  %5 = alloca %struct.TransactionActionList, align 8
  store ptr %0, ptr %3, align 8
  store ptr %1, ptr %4, align 8
  call void @llvm.lifetime.start.p0(i64 16, ptr %5) #16
  call void @llvm.memset.p0.i64(ptr align 8 %5, i8 0, i64 16, i1 false), !annotation !4
  %6 = load ptr, ptr %3, align 8
  %7 = getelementptr inbounds nuw %struct.TransactionActionList, ptr %5, i32 0, i32 1
  store ptr %6, ptr %7, align 8
  %8 = getelementptr inbounds nuw %struct.TransactionActionList, ptr %5, i32 0, i32 0
  store ptr null, ptr %8, align 8
  %9 = load ptr, ptr %4, align 8
  call void @qmp_transaction(ptr noundef %5, ptr noundef null, ptr noundef %9)
  call void @llvm.lifetime.end.p0(i64 16, ptr %5) #16
  ret void
}

; Function Attrs: nounwind sspstrong uwtable
define dso_local void @qmp_blockdev_snapshot_internal_sync(ptr noundef %0, ptr noundef %1, ptr noundef %2) #0 {
  %4 = alloca ptr, align 8
  %5 = alloca ptr, align 8
  %6 = alloca ptr, align 8
  %7 = alloca %struct.BlockdevSnapshotInternal, align 8
  %8 = alloca %struct.TransactionAction, align 8
  store ptr %0, ptr %4, align 8
  store ptr %1, ptr %5, align 8
  store ptr %2, ptr %6, align 8
  call void @llvm.lifetime.start.p0(i64 16, ptr %7) #16
  call void @llvm.memset.p0.i64(ptr align 8 %7, i8 0, i64 16, i1 false), !annotation !4
  %9 = getelementptr inbounds nuw %struct.BlockdevSnapshotInternal, ptr %7, i32 0, i32 0
  %10 = load ptr, ptr %4, align 8
  store ptr %10, ptr %9, align 8
  %11 = getelementptr inbounds nuw %struct.BlockdevSnapshotInternal, ptr %7, i32 0, i32 1
  %12 = load ptr, ptr %5, align 8
  store ptr %12, ptr %11, align 8
  call void @llvm.lifetime.start.p0(i64 16, ptr %8) #16
  call void @llvm.memset.p0.i64(ptr align 8 %8, i8 0, i64 16, i1 false), !annotation !4
  %13 = getelementptr inbounds nuw %struct.TransactionAction, ptr %8, i32 0, i32 0
  store i32 9, ptr %13, align 8
  %14 = getelementptr i8, ptr %8, i64 4
  call void @llvm.memset.p0.i64(ptr align 4 %14, i8 0, i64 4, i1 false)
  %15 = getelementptr inbounds nuw %struct.TransactionAction, ptr %8, i32 0, i32 1
  %16 = getelementptr inbounds nuw %struct.BlockdevSnapshotInternalWrapper, ptr %15, i32 0, i32 0
  store ptr %7, ptr %16, align 8
  %17 = load ptr, ptr %6, align 8
  call void @blockdev_do_action(ptr noundef %8, ptr noundef %17)
  call void @llvm.lifetime.end.p0(i64 16, ptr %8) #16
  call void @llvm.lifetime.end.p0(i64 16, ptr %7) #16
  ret void
}