; Function Attrs: nounwind sspstrong uwtable
define dso_local void @qmp_blockdev_snapshot_internal_sync(ptr noundef %0, ptr noundef %1, ptr noundef %2) local_unnamed_addr #0 {
  %4 = alloca %struct.TransactionActionList, align 8
  %5 = alloca %struct.BlockdevSnapshotInternal, align 8
  %6 = alloca %struct.TransactionAction, align 8
  call void @llvm.lifetime.start.p0(i64 16, ptr nonnull %5) #14
  store ptr %0, ptr %5, align 8
  %7 = getelementptr inbounds nuw i8, ptr %5, i64 8
  store ptr %1, ptr %7, align 8
  call void @llvm.lifetime.start.p0(i64 16, ptr nonnull %6) #14
  store i32 9, ptr %6, align 8
  %8 = getelementptr inbounds nuw i8, ptr %6, i64 4
  store i32 0, ptr %8, align 4
  %9 = getelementptr inbounds nuw i8, ptr %6, i64 8
  store ptr %5, ptr %9, align 8
  call void @llvm.lifetime.start.p0(i64 16, ptr nonnull %4) #14
  %10 = getelementptr inbounds nuw i8, ptr %4, i64 8
  store ptr %6, ptr %10, align 8
  store ptr null, ptr %4, align 8
  call void @qmp_transaction(ptr noundef nonnull %4, ptr noundef null, ptr noundef %2)
  call void @llvm.lifetime.end.p0(i64 16, ptr nonnull %4) #14
  call void @llvm.lifetime.end.p0(i64 16, ptr nonnull %6) #14
  call void @llvm.lifetime.end.p0(i64 16, ptr nonnull %5) #14
  ret void
}